(dp0
S'Pos_Mitz'
p1
(dp2
S'Deuteronomy'
p3
I79
sS'Leviticus'
p4
I85
sS'Exodus'
p5
I41
sS'Genesis'
p6
I2
sS'Numbers'
p7
I32
ssS'Num_Elokim'
p8
(dp9
g3
I347
sg4
I52
sg5
I123
sg6
I226
sg7
I34
ssS'gem_total'
p10
(dp11
g3
I3808401
sg4
I3151086
sg5
I4653983
sg6
I5117306
sg7
I4364306
ssS'Neg_Mitz'
p12
(dp13
g3
I114
sg4
I154
sg5
I71
sg6
I1
sg7
I23
ssS'Num_Adoshem'
p14
(dp15
g3
I548
sg4
I311
sg5
I395
sg6
I161
sg7
I396
ss.
